; Function Attrs: nofree norecurse nosync nounwind memory(read, argmem: readwrite, inaccessiblemem: none) uwtable
define void @OSQPVectorf_to_raw(ptr nocapture noundef writeonly %0, ptr nocapture noundef readonly %1) local_unnamed_addr #17 {
  %3 = getelementptr inbounds i8, ptr %1, i64 8
  %4 = load i64, ptr %3, align 8
  %5 = load ptr, ptr %1, align 8
  %6 = icmp sgt i64 %4, 0
  br i1 %6, label %.lr.ph, label %._crit_edge

.lr.ph:                                           ; preds = %2, %.lr.ph
  %.08 = phi i64 [ %10, %.lr.ph ], [ 0, %2 ]
  %7 = getelementptr inbounds double, ptr %5, i64 %.08
  %8 = load double, ptr %7, align 8
  %9 = getelementptr inbounds double, ptr %0, i64 %.08
  store double %8, ptr %9, align 8
  %10 = add nuw nsw i64 %.08, 1
  %exitcond.not = icmp eq i64 %10, %4
  br i1 %exitcond.not, label %._crit_edge, label %.lr.ph, !llvm.loop !15

._crit_edge:                                      ; preds = %.lr.ph, %2
  ret void
}